target datalayout = "e-m:e-p270:32:32-p271:32:32-p272:64:64-i64:64-i128:128-f80:128-n8:16:32:64-S128"
target triple = "x86_64-pc-linux-gnu"

%struct.nghttp2_hd_deflater = type { %struct.nghttp2_hd_context, %struct.nghttp2_hd_map, i64, i64, i8 }
%struct.nghttp2_hd_context = type { %struct.nghttp2_hd_ringbuf, ptr, i64, i64, i32, i8 }
%struct.nghttp2_hd_ringbuf = type { ptr, i64, i64, i64 }
%struct.nghttp2_hd_map = type { [128 x ptr] }

; Function Attrs: nounwind uwtable
define internal i32 @hd_ringbuf_init(ptr noundef %0, i64 noundef %1, ptr noundef %2) #0 {
  %4 = alloca i32, align 4
  %5 = alloca ptr, align 8
  %6 = alloca i64, align 8
  %7 = alloca ptr, align 8
  %8 = alloca i64, align 8
  %9 = alloca i64, align 8
  %10 = alloca i32, align 4
  store ptr %0, ptr %5, align 8, !tbaa !8
  store i64 %1, ptr %6, align 8, !tbaa !37
  store ptr %2, ptr %7, align 8, !tbaa !8
  call void @llvm.lifetime.start.p0(i64 8, ptr %8) #8
  call void @llvm.lifetime.start.p0(i64 8, ptr %9) #8
  store i64 2305843009213693951, ptr %9, align 8, !tbaa !37
  %11 = load i64, ptr %6, align 8, !tbaa !37
  %12 = icmp ugt i64 %11, 2305843009213693951
  br i1 %12, label %13, label %14

13:                                               ; preds = %3
  store i32 -901, ptr %4, align 4
  store i32 1, ptr %10, align 4
  br label %48

14:                                               ; preds = %3
  store i64 1, ptr %8, align 8, !tbaa !37
  br label %15

15:                                               ; preds = %20, %14
  %16 = load i64, ptr %8, align 8, !tbaa !37
  %17 = load i64, ptr %6, align 8, !tbaa !37
  %18 = icmp ult i64 %16, %17
  br i1 %18, label %19, label %23

19:                                               ; preds = %15
  br label %20

20:                                               ; preds = %19
  %21 = load i64, ptr %8, align 8, !tbaa !37
  %22 = shl i64 %21, 1
  store i64 %22, ptr %8, align 8, !tbaa !37
  br label %15, !llvm.loop !118

23:                                               ; preds = %15
  %24 = load i64, ptr %8, align 8, !tbaa !37
  %25 = icmp ugt i64 %24, 2305843009213693951
  br i1 %25, label %26, label %27

26:                                               ; preds = %23
  store i32 -901, ptr %4, align 4
  store i32 1, ptr %10, align 4
  br label %48

27:                                               ; preds = %23
  %28 = load ptr, ptr %7, align 8, !tbaa !8
  %29 = load i64, ptr %8, align 8, !tbaa !37
  %30 = mul i64 8, %29
  %31 = call ptr @nghttp2_mem_malloc(ptr noundef %28, i64 noundef %30)
  %32 = load ptr, ptr %5, align 8, !tbaa !8
  %33 = getelementptr inbounds nuw %struct.nghttp2_hd_ringbuf, ptr %32, i32 0, i32 0
  store ptr %31, ptr %33, align 8, !tbaa !81
  %34 = load ptr, ptr %5, align 8, !tbaa !8
  %35 = getelementptr inbounds nuw %struct.nghttp2_hd_ringbuf, ptr %34, i32 0, i32 0
  %36 = load ptr, ptr %35, align 8, !tbaa !81
  %37 = icmp eq ptr %36, null
  br i1 %37, label %38, label %39

38:                                               ; preds = %27
  store i32 -901, ptr %4, align 4
  store i32 1, ptr %10, align 4
  br label %48

39:                                               ; preds = %27
  %40 = load i64, ptr %8, align 8, !tbaa !37
  %41 = sub i64 %40, 1
  %42 = load ptr, ptr %5, align 8, !tbaa !8
  %43 = getelementptr inbounds nuw %struct.nghttp2_hd_ringbuf, ptr %42, i32 0, i32 1
  store i64 %41, ptr %43, align 8, !tbaa !83
  %44 = load ptr, ptr %5, align 8, !tbaa !8
  %45 = getelementptr inbounds nuw %struct.nghttp2_hd_ringbuf, ptr %44, i32 0, i32 2
  store i64 0, ptr %45, align 8, !tbaa !82
  %46 = load ptr, ptr %5, align 8, !tbaa !8
  %47 = getelementptr inbounds nuw %struct.nghttp2_hd_ringbuf, ptr %46, i32 0, i32 3
  store i64 0, ptr %47, align 8, !tbaa !80
  store i32 0, ptr %4, align 4
  store i32 1, ptr %10, align 4
  br label %48

48:                                               ; preds = %39, %38, %26, %13
  call void @llvm.lifetime.end.p0(i64 8, ptr %9) #8
  call void @llvm.lifetime.end.p0(i64 8, ptr %8) #8
  %49 = load i32, ptr %4, align 4
  ret i32 %49
}

; Function Attrs: nounwind uwtable
define internal void @hd_map_init(ptr noundef %0) #0 {
  %2 = alloca ptr, align 8
  store ptr %0, ptr %2, align 8, !tbaa !8
  %3 = load ptr, ptr %2, align 8, !tbaa !8
  call void @llvm.memset.p0.i64(ptr align 8 %3, i8 0, i64 1024, i1 false)
  ret void
}

; Function Attrs: nounwind uwtable
define internal i32 @hd_context_init(ptr noundef %0, ptr noundef %1) #0 {
  %3 = alloca i32, align 4
  %4 = alloca ptr, align 8
  %5 = alloca ptr, align 8
  %6 = alloca i32, align 4
  %7 = alloca i32, align 4
  store ptr %0, ptr %4, align 8, !tbaa !8
  store ptr %1, ptr %5, align 8, !tbaa !8
  call void @llvm.lifetime.start.p0(i64 4, ptr %6) #8
  %8 = load ptr, ptr %5, align 8, !tbaa !8
  %9 = load ptr, ptr %4, align 8, !tbaa !8
  %10 = getelementptr inbounds nuw %struct.nghttp2_hd_context, ptr %9, i32 0, i32 1
  store ptr %8, ptr %10, align 8, !tbaa !48
  %11 = load ptr, ptr %4, align 8, !tbaa !8
  %12 = getelementptr inbounds nuw %struct.nghttp2_hd_context, ptr %11, i32 0, i32 5
  store i8 0, ptr %12, align 4, !tbaa !49
  %13 = load ptr, ptr %4, align 8, !tbaa !8
  %14 = getelementptr inbounds nuw %struct.nghttp2_hd_context, ptr %13, i32 0, i32 3
  store i64 4096, ptr %14, align 8, !tbaa !50
  %15 = load ptr, ptr %4, align 8, !tbaa !8
  %16 = getelementptr inbounds nuw %struct.nghttp2_hd_context, ptr %15, i32 0, i32 0
  %17 = load ptr, ptr %4, align 8, !tbaa !8
  %18 = getelementptr inbounds nuw %struct.nghttp2_hd_context, ptr %17, i32 0, i32 3
  %19 = load i64, ptr %18, align 8, !tbaa !50
  %20 = udiv i64 %19, 32
  %21 = load ptr, ptr %5, align 8, !tbaa !8
  %22 = call i32 @hd_ringbuf_init(ptr noundef %16, i64 noundef %20, ptr noundef %21)
  store i32 %22, ptr %6, align 4, !tbaa !12
  %23 = load i32, ptr %6, align 4, !tbaa !12
  %24 = icmp ne i32 %23, 0
  br i1 %24, label %25, label %27

25:                                               ; preds = %2
  %26 = load i32, ptr %6, align 4, !tbaa !12
  store i32 %26, ptr %3, align 4
  store i32 1, ptr %7, align 4
  br label %32

27:                                               ; preds = %2
  %28 = load ptr, ptr %4, align 8, !tbaa !8
  %29 = getelementptr inbounds nuw %struct.nghttp2_hd_context, ptr %28, i32 0, i32 2
  store i64 0, ptr %29, align 8, !tbaa !51
  %30 = load ptr, ptr %4, align 8, !tbaa !8
  %31 = getelementptr inbounds nuw %struct.nghttp2_hd_context, ptr %30, i32 0, i32 4
  store i32 0, ptr %31, align 8, !tbaa !52
  store i32 0, ptr %3, align 4
  store i32 1, ptr %7, align 4
  br label %32

32:                                               ; preds = %27, %25
  call void @llvm.lifetime.end.p0(i64 4, ptr %6) #8
  %33 = load i32, ptr %3, align 4
  ret i32 %33
}

; Function Attrs: nounwind uwtable
define hidden i32 @nghttp2_hd_deflate_init2(ptr noundef %0, i64 noundef %1, ptr noundef %2) #0 {
  %4 = alloca i32, align 4
  %5 = alloca ptr, align 8
  %6 = alloca i64, align 8
  %7 = alloca ptr, align 8
  %8 = alloca i32, align 4
  %9 = alloca i32, align 4
  store ptr %0, ptr %5, align 8, !tbaa !35
  store i64 %1, ptr %6, align 8, !tbaa !37
  store ptr %2, ptr %7, align 8, !tbaa !8
  call void @llvm.lifetime.start.p0(i64 4, ptr %8) #8
  %10 = load ptr, ptr %5, align 8, !tbaa !35
  %11 = getelementptr inbounds nuw %struct.nghttp2_hd_deflater, ptr %10, i32 0, i32 0
  %12 = load ptr, ptr %7, align 8, !tbaa !8
  %13 = call i32 @hd_context_init(ptr noundef %11, ptr noundef %12)
  store i32 %13, ptr %8, align 4, !tbaa !12
  %14 = load i32, ptr %8, align 4, !tbaa !12
  %15 = icmp ne i32 %14, 0
  br i1 %15, label %16, label %18

16:                                               ; preds = %3
  %17 = load i32, ptr %8, align 4, !tbaa !12
  store i32 %17, ptr %4, align 4
  store i32 1, ptr %9, align 4
  br label %39

18:                                               ; preds = %3
  %19 = load ptr, ptr %5, align 8, !tbaa !35
  %20 = getelementptr inbounds nuw %struct.nghttp2_hd_deflater, ptr %19, i32 0, i32 1
  call void @hd_map_init(ptr noundef %20)
  %21 = load i64, ptr %6, align 8, !tbaa !37
  %22 = icmp ult i64 %21, 4096
  br i1 %22, label %23, label %30

23:                                               ; preds = %18
  %24 = load ptr, ptr %5, align 8, !tbaa !35
  %25 = getelementptr inbounds nuw %struct.nghttp2_hd_deflater, ptr %24, i32 0, i32 4
  store i8 1, ptr %25, align 8, !tbaa !38
  %26 = load i64, ptr %6, align 8, !tbaa !37
  %27 = load ptr, ptr %5, align 8, !tbaa !35
  %28 = getelementptr inbounds nuw %struct.nghttp2_hd_deflater, ptr %27, i32 0, i32 0
  %29 = getelementptr inbounds nuw %struct.nghttp2_hd_context, ptr %28, i32 0, i32 3
  store i64 %26, ptr %29, align 8, !tbaa !45
  br label %33

30:                                               ; preds = %18
  %31 = load ptr, ptr %5, align 8, !tbaa !35
  %32 = getelementptr inbounds nuw %struct.nghttp2_hd_deflater, ptr %31, i32 0, i32 4
  store i8 0, ptr %32, align 8, !tbaa !38
  br label %33

33:                                               ; preds = %30, %23
  %34 = load i64, ptr %6, align 8, !tbaa !37
  %35 = load ptr, ptr %5, align 8, !tbaa !35
  %36 = getelementptr inbounds nuw %struct.nghttp2_hd_deflater, ptr %35, i32 0, i32 2
  store i64 %34, ptr %36, align 8, !tbaa !46
  %37 = load ptr, ptr %5, align 8, !tbaa !35
  %38 = getelementptr inbounds nuw %struct.nghttp2_hd_deflater, ptr %37, i32 0, i32 3
  store i64 4294967295, ptr %38, align 8, !tbaa !47
  store i32 0, ptr %4, align 4
  store i32 1, ptr %9, align 4
  br label %39

39:                                               ; preds = %33, %16
  call void @llvm.lifetime.end.p0(i64 4, ptr %8) #8
  %40 = load i32, ptr %4, align 4
  ret i32 %40
}

; Function Attrs: nounwind uwtable
define hidden i32 @nghttp2_hd_deflate_init(ptr noundef %0, ptr noundef %1) #0 {
  %3 = alloca ptr, align 8
  %4 = alloca ptr, align 8
  store ptr %0, ptr %3, align 8, !tbaa !35
  store ptr %1, ptr %4, align 8, !tbaa !8
  %5 = load ptr, ptr %3, align 8, !tbaa !35
  %6 = load ptr, ptr %4, align 8, !tbaa !8
  %7 = call i32 @nghttp2_hd_deflate_init2(ptr noundef %5, i64 noundef 4096, ptr noundef %6)
  ret i32 %7
}