; Function Attrs: nounwind uwtable
define hidden range(i32 -901, 1) i32 @nghttp2_hd_deflate_init(ptr noundef writeonly captures(none) initializes((0, 8), (32, 40), (48, 56), (60, 61)) %0, ptr noundef %1) local_unnamed_addr #0 {
  %3 = getelementptr inbounds nuw i8, ptr %0, i64 32
  store ptr %1, ptr %3, align 8, !tbaa !33
  %4 = getelementptr inbounds nuw i8, ptr %0, i64 60
  store i8 0, ptr %4, align 4, !tbaa !38
  %5 = getelementptr inbounds nuw i8, ptr %0, i64 48
  store i64 4096, ptr %5, align 8, !tbaa !39
  %6 = tail call ptr @nghttp2_mem_malloc(ptr noundef %1, i64 noundef 1024) #12
  store ptr %6, ptr %0, align 8, !tbaa !40
  %7 = icmp eq ptr %6, null
  br i1 %7, label %nghttp2_hd_deflate_init2.exit, label %8

8:                                                ; preds = %2
  %9 = getelementptr inbounds nuw i8, ptr %0, i64 8
  store i64 127, ptr %9, align 8, !tbaa !41
  %10 = getelementptr inbounds nuw i8, ptr %0, i64 16
  tail call void @llvm.memset.p0.i64(ptr noundef nonnull align 8 dereferenceable(16) %10, i8 0, i64 16, i1 false)
  %11 = getelementptr inbounds nuw i8, ptr %0, i64 40
  store i64 0, ptr %11, align 8, !tbaa !42
  %12 = getelementptr inbounds nuw i8, ptr %0, i64 56
  store i32 0, ptr %12, align 8, !tbaa !43
  %13 = getelementptr inbounds nuw i8, ptr %0, i64 64
  tail call void @llvm.memset.p0.i64(ptr noundef nonnull align 8 dereferenceable(1024) %13, i8 0, i64 1024, i1 false)
  %14 = getelementptr inbounds nuw i8, ptr %0, i64 1104
  store i8 0, ptr %14, align 8, !tbaa !44
  %15 = getelementptr inbounds nuw i8, ptr %0, i64 1088
  store i64 4096, ptr %15, align 8, !tbaa !47
  %16 = getelementptr inbounds nuw i8, ptr %0, i64 1096
  store i64 4294967295, ptr %16, align 8, !tbaa !48
  br label %nghttp2_hd_deflate_init2.exit

nghttp2_hd_deflate_init2.exit:                    ; preds = %2, %8
  %.0.i = phi i32 [ 0, %8 ], [ -901, %2 ]
  ret i32 %.0.i
}